target datalayout = "e-m:e-p270:32:32-p271:32:32-p272:64:64-i64:64-i128:128-f80:128-n8:16:32:64-S128"
target triple = "x86_64-pc-linux-gnu"

%struct.FunctionCallInfoBaseData = type { ptr, ptr, ptr, i32, i8, i16, [0 x %struct.NullableDatum] }
%struct.NullableDatum = type { i64, i8 }

; Function Attrs: inlinehint nounwind uwtable
define internal i64 @Int64GetDatum(i64 noundef %0) #3 {
  %2 = alloca i64, align 8
  store i64 %0, ptr %2, align 8
  %3 = load i64, ptr %2, align 8
  ret i64 %3
}

; Function Attrs: inlinehint nounwind uwtable
define internal i64 @LSNGetDatum(i64 noundef %0) #3 {
  %2 = alloca i64, align 8
  store i64 %0, ptr %2, align 8
  %3 = load i64, ptr %2, align 8
  %4 = call i64 @Int64GetDatum(i64 noundef %3)
  ret i64 %4
}

; Function Attrs: nounwind uwtable
define dso_local i64 @pg_last_wal_receive_lsn(ptr noundef %0) #0 {
  %2 = alloca i64, align 8
  %3 = alloca ptr, align 8
  %4 = alloca i64, align 8
  %5 = alloca i32, align 4
  store ptr %0, ptr %3, align 8
  call void @llvm.lifetime.start.p0(i64 8, ptr %4) #9
  %6 = call i64 @GetWalRcvFlushRecPtr(ptr noundef null, ptr noundef null)
  store i64 %6, ptr %4, align 8
  %7 = load i64, ptr %4, align 8
  %8 = icmp eq i64 %7, 0
  br i1 %8, label %9, label %15

9:                                                ; preds = %1
  br label %10

10:                                               ; preds = %9
  %11 = load ptr, ptr %3, align 8
  %12 = getelementptr inbounds nuw %struct.FunctionCallInfoBaseData, ptr %11, i32 0, i32 4
  store i8 1, ptr %12, align 4
  store i64 0, ptr %2, align 8
  store i32 1, ptr %5, align 4
  br label %18

13:                                               ; No predecessors!
  br label %14

14:                                               ; preds = %13
  br label %15

15:                                               ; preds = %14, %1
  %16 = load i64, ptr %4, align 8
  %17 = call i64 @LSNGetDatum(i64 noundef %16)
  store i64 %17, ptr %2, align 8
  store i32 1, ptr %5, align 4
  br label %18

18:                                               ; preds = %15, %10
  call void @llvm.lifetime.end.p0(i64 8, ptr %4) #9
  %19 = load i64, ptr %2, align 8
  ret i64 %19
}