; Function Attrs: nounwind uwtable
define dso_local i64 @pg_last_wal_receive_lsn(ptr noundef writeonly captures(none) %0) local_unnamed_addr #0 {
  %2 = tail call i64 @GetWalRcvFlushRecPtr(ptr noundef null, ptr noundef null) #9
  %3 = icmp eq i64 %2, 0
  br i1 %3, label %4, label %6

4:                                                ; preds = %1
  %5 = getelementptr inbounds nuw i8, ptr %0, i64 28
  store i8 1, ptr %5, align 4
  br label %6

6:                                                ; preds = %1, %4
  ret i64 %2
}